target datalayout = "e-m:e-p270:32:32-p271:32:32-p272:64:64-i64:64-i128:128-f80:128-n8:16:32:64-S128"
target triple = "x86_64-pc-linux-gnu"

; Function Attrs: nounwind uwtable
define internal void @put_luma_v_12(ptr noundef %0, ptr noundef %1, i64 noundef %2, i32 noundef %3, ptr noundef %4, ptr noundef %5, i32 noundef %6) #0 {
  %8 = alloca ptr, align 8
  %9 = alloca ptr, align 8
  %10 = alloca i64, align 8
  %11 = alloca i32, align 4
  %12 = alloca ptr, align 8
  %13 = alloca ptr, align 8
  %14 = alloca i32, align 4
  %15 = alloca ptr, align 8
  %16 = alloca i64, align 8
  %17 = alloca ptr, align 8
  %18 = alloca i32, align 4
  %19 = alloca i32, align 4
  %20 = alloca i32, align 4
  store ptr %0, ptr %8, align 8, !tbaa !142
  store ptr %1, ptr %9, align 8, !tbaa !144
  store i64 %2, ptr %10, align 8, !tbaa !146
  store i32 %3, ptr %11, align 4, !tbaa !9
  store ptr %4, ptr %12, align 8, !tbaa !144
  store ptr %5, ptr %13, align 8, !tbaa !144
  store i32 %6, ptr %14, align 4, !tbaa !9
  call void @llvm.lifetime.start.p0(i64 8, ptr %15) #8
  %21 = load ptr, ptr %9, align 8, !tbaa !144
  store ptr %21, ptr %15, align 8, !tbaa !142
  call void @llvm.lifetime.start.p0(i64 8, ptr %16) #8
  %22 = load i64, ptr %10, align 8, !tbaa !146
  %23 = udiv i64 %22, 2
  store i64 %23, ptr %16, align 8, !tbaa !146
  call void @llvm.lifetime.start.p0(i64 8, ptr %17) #8
  %24 = load ptr, ptr %13, align 8, !tbaa !144
  store ptr %24, ptr %17, align 8, !tbaa !144
  call void @llvm.lifetime.start.p0(i64 4, ptr %18) #8
  store i32 0, ptr %18, align 4, !tbaa !9
  br label %25

25:                                               ; preds = %166, %7
  %26 = load i32, ptr %18, align 4, !tbaa !9
  %27 = load i32, ptr %11, align 4, !tbaa !9
  %28 = icmp slt i32 %26, %27
  br i1 %28, label %30, label %29

29:                                               ; preds = %25
  store i32 2, ptr %19, align 4
  call void @llvm.lifetime.end.p0(i64 4, ptr %18) #8
  br label %169

30:                                               ; preds = %25
  call void @llvm.lifetime.start.p0(i64 4, ptr %20) #8
  store i32 0, ptr %20, align 4, !tbaa !9
  br label %31

31:                                               ; preds = %157, %30
  %32 = load i32, ptr %20, align 4, !tbaa !9
  %33 = load i32, ptr %14, align 4, !tbaa !9
  %34 = icmp slt i32 %32, %33
  br i1 %34, label %36, label %35

35:                                               ; preds = %31
  store i32 5, ptr %19, align 4
  call void @llvm.lifetime.end.p0(i64 4, ptr %20) #8
  br label %160

36:                                               ; preds = %31
  %37 = load ptr, ptr %17, align 8, !tbaa !144
  %38 = getelementptr inbounds i8, ptr %37, i64 0
  %39 = load i8, ptr %38, align 1, !tbaa !152
  %40 = sext i8 %39 to i32
  %41 = load ptr, ptr %15, align 8, !tbaa !142
  %42 = load i32, ptr %20, align 4, !tbaa !9
  %43 = sext i32 %42 to i64
  %44 = load i64, ptr %16, align 8, !tbaa !146
  %45 = mul nsw i64 3, %44
  %46 = sub nsw i64 %43, %45
  %47 = getelementptr inbounds i16, ptr %41, i64 %46
  %48 = load i16, ptr %47, align 2, !tbaa !148
  %49 = zext i16 %48 to i32
  %50 = mul nsw i32 %40, %49
  %51 = load ptr, ptr %17, align 8, !tbaa !144
  %52 = getelementptr inbounds i8, ptr %51, i64 1
  %53 = load i8, ptr %52, align 1, !tbaa !152
  %54 = sext i8 %53 to i32
  %55 = load ptr, ptr %15, align 8, !tbaa !142
  %56 = load i32, ptr %20, align 4, !tbaa !9
  %57 = sext i32 %56 to i64
  %58 = load i64, ptr %16, align 8, !tbaa !146
  %59 = mul nsw i64 2, %58
  %60 = sub nsw i64 %57, %59
  %61 = getelementptr inbounds i16, ptr %55, i64 %60
  %62 = load i16, ptr %61, align 2, !tbaa !148
  %63 = zext i16 %62 to i32
  %64 = mul nsw i32 %54, %63
  %65 = add nsw i32 %50, %64
  %66 = load ptr, ptr %17, align 8, !tbaa !144
  %67 = getelementptr inbounds i8, ptr %66, i64 2
  %68 = load i8, ptr %67, align 1, !tbaa !152
  %69 = sext i8 %68 to i32
  %70 = load ptr, ptr %15, align 8, !tbaa !142
  %71 = load i32, ptr %20, align 4, !tbaa !9
  %72 = sext i32 %71 to i64
  %73 = load i64, ptr %16, align 8, !tbaa !146
  %74 = sub nsw i64 %72, %73
  %75 = getelementptr inbounds i16, ptr %70, i64 %74
  %76 = load i16, ptr %75, align 2, !tbaa !148
  %77 = zext i16 %76 to i32
  %78 = mul nsw i32 %69, %77
  %79 = add nsw i32 %65, %78
  %80 = load ptr, ptr %17, align 8, !tbaa !144
  %81 = getelementptr inbounds i8, ptr %80, i64 3
  %82 = load i8, ptr %81, align 1, !tbaa !152
  %83 = sext i8 %82 to i32
  %84 = load ptr, ptr %15, align 8, !tbaa !142
  %85 = load i32, ptr %20, align 4, !tbaa !9
  %86 = sext i32 %85 to i64
  %87 = getelementptr inbounds i16, ptr %84, i64 %86
  %88 = load i16, ptr %87, align 2, !tbaa !148
  %89 = zext i16 %88 to i32
  %90 = mul nsw i32 %83, %89
  %91 = add nsw i32 %79, %90
  %92 = load ptr, ptr %17, align 8, !tbaa !144
  %93 = getelementptr inbounds i8, ptr %92, i64 4
  %94 = load i8, ptr %93, align 1, !tbaa !152
  %95 = sext i8 %94 to i32
  %96 = load ptr, ptr %15, align 8, !tbaa !142
  %97 = load i32, ptr %20, align 4, !tbaa !9
  %98 = sext i32 %97 to i64
  %99 = load i64, ptr %16, align 8, !tbaa !146
  %100 = add nsw i64 %98, %99
  %101 = getelementptr inbounds i16, ptr %96, i64 %100
  %102 = load i16, ptr %101, align 2, !tbaa !148
  %103 = zext i16 %102 to i32
  %104 = mul nsw i32 %95, %103
  %105 = add nsw i32 %91, %104
  %106 = load ptr, ptr %17, align 8, !tbaa !144
  %107 = getelementptr inbounds i8, ptr %106, i64 5
  %108 = load i8, ptr %107, align 1, !tbaa !152
  %109 = sext i8 %108 to i32
  %110 = load ptr, ptr %15, align 8, !tbaa !142
  %111 = load i32, ptr %20, align 4, !tbaa !9
  %112 = sext i32 %111 to i64
  %113 = load i64, ptr %16, align 8, !tbaa !146
  %114 = mul nsw i64 2, %113
  %115 = add nsw i64 %112, %114
  %116 = getelementptr inbounds i16, ptr %110, i64 %115
  %117 = load i16, ptr %116, align 2, !tbaa !148
  %118 = zext i16 %117 to i32
  %119 = mul nsw i32 %109, %118
  %120 = add nsw i32 %105, %119
  %121 = load ptr, ptr %17, align 8, !tbaa !144
  %122 = getelementptr inbounds i8, ptr %121, i64 6
  %123 = load i8, ptr %122, align 1, !tbaa !152
  %124 = sext i8 %123 to i32
  %125 = load ptr, ptr %15, align 8, !tbaa !142
  %126 = load i32, ptr %20, align 4, !tbaa !9
  %127 = sext i32 %126 to i64
  %128 = load i64, ptr %16, align 8, !tbaa !146
  %129 = mul nsw i64 3, %128
  %130 = add nsw i64 %127, %129
  %131 = getelementptr inbounds i16, ptr %125, i64 %130
  %132 = load i16, ptr %131, align 2, !tbaa !148
  %133 = zext i16 %132 to i32
  %134 = mul nsw i32 %124, %133
  %135 = add nsw i32 %120, %134
  %136 = load ptr, ptr %17, align 8, !tbaa !144
  %137 = getelementptr inbounds i8, ptr %136, i64 7
  %138 = load i8, ptr %137, align 1, !tbaa !152
  %139 = sext i8 %138 to i32
  %140 = load ptr, ptr %15, align 8, !tbaa !142
  %141 = load i32, ptr %20, align 4, !tbaa !9
  %142 = sext i32 %141 to i64
  %143 = load i64, ptr %16, align 8, !tbaa !146
  %144 = mul nsw i64 4, %143
  %145 = add nsw i64 %142, %144
  %146 = getelementptr inbounds i16, ptr %140, i64 %145
  %147 = load i16, ptr %146, align 2, !tbaa !148
  %148 = zext i16 %147 to i32
  %149 = mul nsw i32 %139, %148
  %150 = add nsw i32 %135, %149
  %151 = ashr i32 %150, 4
  %152 = trunc i32 %151 to i16
  %153 = load ptr, ptr %8, align 8, !tbaa !142
  %154 = load i32, ptr %20, align 4, !tbaa !9
  %155 = sext i32 %154 to i64
  %156 = getelementptr inbounds i16, ptr %153, i64 %155
  store i16 %152, ptr %156, align 2, !tbaa !148
  br label %157

157:                                              ; preds = %36
  %158 = load i32, ptr %20, align 4, !tbaa !9
  %159 = add nsw i32 %158, 1
  store i32 %159, ptr %20, align 4, !tbaa !9
  br label %31, !llvm.loop !155

160:                                              ; preds = %35
  %161 = load i64, ptr %16, align 8, !tbaa !146
  %162 = load ptr, ptr %15, align 8, !tbaa !142
  %163 = getelementptr inbounds i16, ptr %162, i64 %161
  store ptr %163, ptr %15, align 8, !tbaa !142
  %164 = load ptr, ptr %8, align 8, !tbaa !142
  %165 = getelementptr inbounds i16, ptr %164, i64 128
  store ptr %165, ptr %8, align 8, !tbaa !142
  br label %166

166:                                              ; preds = %160
  %167 = load i32, ptr %18, align 4, !tbaa !9
  %168 = add nsw i32 %167, 1
  store i32 %168, ptr %18, align 4, !tbaa !9
  br label %25, !llvm.loop !156

169:                                              ; preds = %29
  call void @llvm.lifetime.end.p0(i64 8, ptr %17) #8
  call void @llvm.lifetime.end.p0(i64 8, ptr %16) #8
  call void @llvm.lifetime.end.p0(i64 8, ptr %15) #8
  ret void
}